target datalayout = "e-m:e-p270:32:32-p271:32:32-p272:64:64-i64:64-i128:128-f80:128-n8:16:32:64-S128"
target triple = "x86_64-pc-linux-gnu"

@.str.38 = private unnamed_addr constant [5 x i8] c"%.*s\00", align 1
@_ZN9Arguments14_vfprintf_hookE = external global ptr, align 8
@DisplayVMOutputToStderr = external global i8, align 1
@_ZN13defaultStream13_error_streamE = external global ptr, align 8
@_ZN13defaultStream14_output_streamE = external global ptr, align 8
@_ZN13defaultStream9_error_fdE = external global i32, align 4
@_ZN13defaultStream10_output_fdE = external global i32, align 4

; Function Attrs: mustprogress nounwind uwtable
define linkonce_odr hidden noundef i32 @_ZN13defaultStream9output_fdEv() #1 comdat align 2 {
  %1 = load i8, ptr @DisplayVMOutputToStderr, align 1
  %2 = trunc i8 %1 to i1
  br i1 %2, label %3, label %5

3:                                                ; preds = %0
  %4 = load i32, ptr @_ZN13defaultStream9_error_fdE, align 4
  br label %7

5:                                                ; preds = %0
  %6 = load i32, ptr @_ZN13defaultStream10_output_fdE, align 4
  br label %7

7:                                                ; preds = %5, %3
  %8 = phi i32 [ %4, %3 ], [ %6, %5 ]
  ret i32 %8
}

; Function Attrs: mustprogress nounwind uwtable
define linkonce_odr hidden noundef ptr @_ZN13defaultStream13output_streamEv() #1 comdat align 2 {
  %1 = load i8, ptr @DisplayVMOutputToStderr, align 1
  %2 = trunc i8 %1 to i1
  br i1 %2, label %3, label %5

3:                                                ; preds = %0
  %4 = load ptr, ptr @_ZN13defaultStream13_error_streamE, align 8
  br label %7

5:                                                ; preds = %0
  %6 = load ptr, ptr @_ZN13defaultStream14_output_streamE, align 8
  br label %7

7:                                                ; preds = %5, %3
  %8 = phi ptr [ %4, %3 ], [ %6, %5 ]
  ret ptr %8
}

; Function Attrs: mustprogress nounwind uwtable
define linkonce_odr hidden noundef ptr @_ZN9Arguments13vfprintf_hookEv() #1 comdat align 2 {
  %1 = load ptr, ptr @_ZN9Arguments14_vfprintf_hookE, align 8
  ret ptr %1
}

; Function Attrs: mustprogress nounwind uwtable
define hidden void @jio_print(ptr noundef %0, i64 noundef %1) #1 {
  %3 = alloca ptr, align 8
  %4 = alloca i64, align 8
  %5 = alloca i8, align 1
  store ptr %0, ptr %3, align 8
  store i64 %1, ptr %4, align 8
  %6 = call noundef ptr @_ZN9Arguments13vfprintf_hookEv()
  %7 = icmp ne ptr %6, null
  br i1 %7, label %8, label %14

8:                                                ; preds = %2
  %9 = call noundef ptr @_ZN13defaultStream13output_streamEv()
  %10 = load i64, ptr %4, align 8
  %11 = trunc i64 %10 to i32
  %12 = load ptr, ptr %3, align 8
  %13 = call i32 (ptr, ptr, ...) @jio_fprintf(ptr noundef %9, ptr noundef @.str.38, i32 noundef %11, ptr noundef %12)
  br label %20

14:                                               ; preds = %2
  %15 = call noundef i32 @_ZN13defaultStream9output_fdEv()
  %16 = load ptr, ptr %3, align 8
  %17 = load i64, ptr %4, align 8
  %18 = call noundef zeroext i1 @_ZN2os5writeEiPKvm(i32 noundef %15, ptr noundef %16, i64 noundef %17)
  %19 = zext i1 %18 to i8
  store i8 %19, ptr %5, align 1
  br label %20

20:                                               ; preds = %14, %8
  ret void
}