; Function Attrs: mustprogress nounwind uwtable
define hidden void @jio_print(ptr noundef %0, i64 noundef %1) local_unnamed_addr #0 {
  %3 = load ptr, ptr @_ZN9Arguments14_vfprintf_hookE, align 8
  %.not = icmp eq ptr %3, null
  %4 = load i8, ptr @DisplayVMOutputToStderr, align 1
  %5 = trunc i8 %4 to i1
  br i1 %.not, label %12, label %6

6:                                                ; preds = %2
  %7 = load ptr, ptr @_ZN13defaultStream13_error_streamE, align 8
  %8 = load ptr, ptr @_ZN13defaultStream14_output_streamE, align 8
  %9 = select i1 %5, ptr %7, ptr %8
  %10 = trunc i64 %1 to i32
  %11 = tail call i32 (ptr, ptr, ...) @jio_fprintf(ptr noundef %9, ptr noundef nonnull @.str.38, i32 noundef %10, ptr noundef %0)
  br label %17

12:                                               ; preds = %2
  %13 = load i32, ptr @_ZN13defaultStream9_error_fdE, align 4
  %14 = load i32, ptr @_ZN13defaultStream10_output_fdE, align 4
  %15 = select i1 %5, i32 %13, i32 %14
  %16 = tail call noundef zeroext i1 @_ZN2os5writeEiPKvm(i32 noundef %15, ptr noundef %0, i64 noundef %1) #16
  br label %17

17:                                               ; preds = %12, %6
  ret void
}